target datalayout = "e-m:e-p270:32:32-p271:32:32-p272:64:64-i64:64-i128:128-f80:128-n8:16:32:64-S128"
target triple = "x86_64-pc-linux-gnu"

; Function Attrs: mustprogress nounwind uwtable
define i32 @u_strlen_77(ptr noundef %0) #3 {
  %2 = alloca ptr, align 8
  %3 = alloca ptr, align 8
  store ptr %0, ptr %2, align 8, !tbaa !3
  call void @llvm.lifetime.start.p0(i64 8, ptr %3) #7
  %4 = load ptr, ptr %2, align 8, !tbaa !3
  store ptr %4, ptr %3, align 8, !tbaa !3
  br label %5

5:                                                ; preds = %10, %1
  %6 = load ptr, ptr %3, align 8, !tbaa !3
  %7 = load i16, ptr %6, align 2, !tbaa !10
  %8 = zext i16 %7 to i32
  %9 = icmp ne i32 %8, 0
  br i1 %9, label %10, label %13

10:                                               ; preds = %5
  %11 = load ptr, ptr %3, align 8, !tbaa !3
  %12 = getelementptr inbounds nuw i16, ptr %11, i32 1
  store ptr %12, ptr %3, align 8, !tbaa !3
  br label %5, !llvm.loop !20

13:                                               ; preds = %5
  %14 = load ptr, ptr %3, align 8, !tbaa !3
  %15 = load ptr, ptr %2, align 8, !tbaa !3
  %16 = ptrtoint ptr %14 to i64
  %17 = ptrtoint ptr %15 to i64
  %18 = sub i64 %16, %17
  %19 = sdiv exact i64 %18, 2
  %20 = trunc i64 %19 to i32
  call void @llvm.lifetime.end.p0(i64 8, ptr %3) #7
  ret i32 %20
}

; Function Attrs: mustprogress uwtable
define i32 @uprv_strCompare_77(ptr noundef %0, i32 noundef %1, ptr noundef %2, i32 noundef %3, i8 noundef signext %4, i8 noundef signext %5) #0 {
  %7 = alloca i32, align 4
  %8 = alloca ptr, align 8
  %9 = alloca i32, align 4
  %10 = alloca ptr, align 8
  %11 = alloca i32, align 4
  %12 = alloca i8, align 1
  %13 = alloca i8, align 1
  %14 = alloca ptr, align 8
  %15 = alloca ptr, align 8
  %16 = alloca ptr, align 8
  %17 = alloca ptr, align 8
  %18 = alloca i16, align 2
  %19 = alloca i16, align 2
  %20 = alloca i32, align 4
  %21 = alloca i32, align 4
  store ptr %0, ptr %8, align 8, !tbaa !3
  store i32 %1, ptr %9, align 4, !tbaa !8
  store ptr %2, ptr %10, align 8, !tbaa !3
  store i32 %3, ptr %11, align 4, !tbaa !8
  store i8 %4, ptr %12, align 1, !tbaa !30
  store i8 %5, ptr %13, align 1, !tbaa !30
  call void @llvm.lifetime.start.p0(i64 8, ptr %14) #7
  call void @llvm.lifetime.start.p0(i64 8, ptr %15) #7
  call void @llvm.lifetime.start.p0(i64 8, ptr %16) #7
  call void @llvm.lifetime.start.p0(i64 8, ptr %17) #7
  call void @llvm.lifetime.start.p0(i64 2, ptr %18) #7
  call void @llvm.lifetime.start.p0(i64 2, ptr %19) #7
  %22 = load ptr, ptr %8, align 8, !tbaa !3
  store ptr %22, ptr %14, align 8, !tbaa !3
  %23 = load ptr, ptr %10, align 8, !tbaa !3
  store ptr %23, ptr %15, align 8, !tbaa !3
  %24 = load i32, ptr %9, align 4, !tbaa !8
  %25 = icmp slt i32 %24, 0
  br i1 %25, label %26, label %57

26:                                               ; preds = %6
  %27 = load i32, ptr %11, align 4, !tbaa !8
  %28 = icmp slt i32 %27, 0
  br i1 %28, label %29, label %57

29:                                               ; preds = %26
  %30 = load ptr, ptr %8, align 8, !tbaa !3
  %31 = load ptr, ptr %10, align 8, !tbaa !3
  %32 = icmp eq ptr %30, %31
  br i1 %32, label %33, label %34

33:                                               ; preds = %29
  store i32 0, ptr %7, align 4
  store i32 1, ptr %20, align 4
  br label %273

34:                                               ; preds = %29
  br label %35

35:                                               ; preds = %51, %34
  %36 = load ptr, ptr %8, align 8, !tbaa !3
  %37 = load i16, ptr %36, align 2, !tbaa !10
  store i16 %37, ptr %18, align 2, !tbaa !10
  %38 = load ptr, ptr %10, align 8, !tbaa !3
  %39 = load i16, ptr %38, align 2, !tbaa !10
  store i16 %39, ptr %19, align 2, !tbaa !10
  %40 = load i16, ptr %18, align 2, !tbaa !10
  %41 = zext i16 %40 to i32
  %42 = load i16, ptr %19, align 2, !tbaa !10
  %43 = zext i16 %42 to i32
  %44 = icmp ne i32 %41, %43
  br i1 %44, label %45, label %46

45:                                               ; preds = %35
  br label %56

46:                                               ; preds = %35
  %47 = load i16, ptr %18, align 2, !tbaa !10
  %48 = zext i16 %47 to i32
  %49 = icmp eq i32 %48, 0
  br i1 %49, label %50, label %51

50:                                               ; preds = %46
  store i32 0, ptr %7, align 4
  store i32 1, ptr %20, align 4
  br label %273

51:                                               ; preds = %46
  %52 = load ptr, ptr %8, align 8, !tbaa !3
  %53 = getelementptr inbounds nuw i16, ptr %52, i32 1
  store ptr %53, ptr %8, align 8, !tbaa !3
  %54 = load ptr, ptr %10, align 8, !tbaa !3
  %55 = getelementptr inbounds nuw i16, ptr %54, i32 1
  store ptr %55, ptr %10, align 8, !tbaa !3
  br label %35, !llvm.loop !48

56:                                               ; preds = %45
  store ptr null, ptr %17, align 8, !tbaa !3
  store ptr null, ptr %16, align 8, !tbaa !3
  br label %179

57:                                               ; preds = %26, %6
  %58 = load i8, ptr %12, align 1, !tbaa !30
  %59 = icmp ne i8 %58, 0
  br i1 %59, label %60, label %101

60:                                               ; preds = %57
  %61 = load ptr, ptr %8, align 8, !tbaa !3
  %62 = load ptr, ptr %10, align 8, !tbaa !3
  %63 = icmp eq ptr %61, %62
  br i1 %63, label %64, label %65

64:                                               ; preds = %60
  store i32 0, ptr %7, align 4
  store i32 1, ptr %20, align 4
  br label %273

65:                                               ; preds = %60
  %66 = load ptr, ptr %14, align 8, !tbaa !3
  %67 = load i32, ptr %9, align 4, !tbaa !8
  %68 = sext i32 %67 to i64
  %69 = getelementptr inbounds i16, ptr %66, i64 %68
  store ptr %69, ptr %16, align 8, !tbaa !3
  br label %70

70:                                               ; preds = %91, %65
  %71 = load ptr, ptr %8, align 8, !tbaa !3
  %72 = load ptr, ptr %16, align 8, !tbaa !3
  %73 = icmp eq ptr %71, %72
  br i1 %73, label %74, label %75

74:                                               ; preds = %70
  store i32 0, ptr %7, align 4
  store i32 1, ptr %20, align 4
  br label %273

75:                                               ; preds = %70
  %76 = load ptr, ptr %8, align 8, !tbaa !3
  %77 = load i16, ptr %76, align 2, !tbaa !10
  store i16 %77, ptr %18, align 2, !tbaa !10
  %78 = load ptr, ptr %10, align 8, !tbaa !3
  %79 = load i16, ptr %78, align 2, !tbaa !10
  store i16 %79, ptr %19, align 2, !tbaa !10
  %80 = load i16, ptr %18, align 2, !tbaa !10
  %81 = zext i16 %80 to i32
  %82 = load i16, ptr %19, align 2, !tbaa !10
  %83 = zext i16 %82 to i32
  %84 = icmp ne i32 %81, %83
  br i1 %84, label %85, label %86

85:                                               ; preds = %75
  br label %96

86:                                               ; preds = %75
  %87 = load i16, ptr %18, align 2, !tbaa !10
  %88 = zext i16 %87 to i32
  %89 = icmp eq i32 %88, 0
  br i1 %89, label %90, label %91

90:                                               ; preds = %86
  store i32 0, ptr %7, align 4
  store i32 1, ptr %20, align 4
  br label %273

91:                                               ; preds = %86
  %92 = load ptr, ptr %8, align 8, !tbaa !3
  %93 = getelementptr inbounds nuw i16, ptr %92, i32 1
  store ptr %93, ptr %8, align 8, !tbaa !3
  %94 = load ptr, ptr %10, align 8, !tbaa !3
  %95 = getelementptr inbounds nuw i16, ptr %94, i32 1
  store ptr %95, ptr %10, align 8, !tbaa !3
  br label %70, !llvm.loop !49

96:                                               ; preds = %85
  %97 = load ptr, ptr %15, align 8, !tbaa !3
  %98 = load i32, ptr %9, align 4, !tbaa !8
  %99 = sext i32 %98 to i64
  %100 = getelementptr inbounds i16, ptr %97, i64 %99
  store ptr %100, ptr %17, align 8, !tbaa !3
  br label %178

101:                                              ; preds = %57
  call void @llvm.lifetime.start.p0(i64 4, ptr %21) #7
  %102 = load i32, ptr %9, align 4, !tbaa !8
  %103 = icmp slt i32 %102, 0
  br i1 %103, label %104, label %107

104:                                              ; preds = %101
  %105 = load ptr, ptr %8, align 8, !tbaa !3
  %106 = call i32 @u_strlen_77(ptr noundef %105)
  store i32 %106, ptr %9, align 4, !tbaa !8
  br label %107

107:                                              ; preds = %104, %101
  %108 = load i32, ptr %11, align 4, !tbaa !8
  %109 = icmp slt i32 %108, 0
  br i1 %109, label %110, label %113

110:                                              ; preds = %107
  %111 = load ptr, ptr %10, align 8, !tbaa !3
  %112 = call i32 @u_strlen_77(ptr noundef %111)
  store i32 %112, ptr %11, align 4, !tbaa !8
  br label %113

113:                                              ; preds = %110, %107
  %114 = load i32, ptr %9, align 4, !tbaa !8
  %115 = load i32, ptr %11, align 4, !tbaa !8
  %116 = icmp slt i32 %114, %115
  br i1 %116, label %117, label %122

117:                                              ; preds = %113
  store i32 -1, ptr %21, align 4, !tbaa !8
  %118 = load ptr, ptr %14, align 8, !tbaa !3
  %119 = load i32, ptr %9, align 4, !tbaa !8
  %120 = sext i32 %119 to i64
  %121 = getelementptr inbounds i16, ptr %118, i64 %120
  store ptr %121, ptr %16, align 8, !tbaa !3
  br label %137

122:                                              ; preds = %113
  %123 = load i32, ptr %9, align 4, !tbaa !8
  %124 = load i32, ptr %11, align 4, !tbaa !8
  %125 = icmp eq i32 %123, %124
  br i1 %125, label %126, label %131

126:                                              ; preds = %122
  store i32 0, ptr %21, align 4, !tbaa !8
  %127 = load ptr, ptr %14, align 8, !tbaa !3
  %128 = load i32, ptr %9, align 4, !tbaa !8
  %129 = sext i32 %128 to i64
  %130 = getelementptr inbounds i16, ptr %127, i64 %129
  store ptr %130, ptr %16, align 8, !tbaa !3
  br label %136

131:                                              ; preds = %122
  store i32 1, ptr %21, align 4, !tbaa !8
  %132 = load ptr, ptr %14, align 8, !tbaa !3
  %133 = load i32, ptr %11, align 4, !tbaa !8
  %134 = sext i32 %133 to i64
  %135 = getelementptr inbounds i16, ptr %132, i64 %134
  store ptr %135, ptr %16, align 8, !tbaa !3
  br label %136

136:                                              ; preds = %131, %126
  br label %137

137:                                              ; preds = %136, %117
  %138 = load ptr, ptr %8, align 8, !tbaa !3
  %139 = load ptr, ptr %10, align 8, !tbaa !3
  %140 = icmp eq ptr %138, %139
  br i1 %140, label %141, label %143

141:                                              ; preds = %137
  %142 = load i32, ptr %21, align 4, !tbaa !8
  store i32 %142, ptr %7, align 4
  store i32 1, ptr %20, align 4
  br label %175

143:                                              ; preds = %137
  br label %144

144:                                              ; preds = %161, %143
  %145 = load ptr, ptr %8, align 8, !tbaa !3
  %146 = load ptr, ptr %16, align 8, !tbaa !3
  %147 = icmp eq ptr %145, %146
  br i1 %147, label %148, label %150

148:                                              ; preds = %144
  %149 = load i32, ptr %21, align 4, !tbaa !8
  store i32 %149, ptr %7, align 4
  store i32 1, ptr %20, align 4
  br label %175

150:                                              ; preds = %144
  %151 = load ptr, ptr %8, align 8, !tbaa !3
  %152 = load i16, ptr %151, align 2, !tbaa !10
  store i16 %152, ptr %18, align 2, !tbaa !10
  %153 = load ptr, ptr %10, align 8, !tbaa !3
  %154 = load i16, ptr %153, align 2, !tbaa !10
  store i16 %154, ptr %19, align 2, !tbaa !10
  %155 = load i16, ptr %18, align 2, !tbaa !10
  %156 = zext i16 %155 to i32
  %157 = load i16, ptr %19, align 2, !tbaa !10
  %158 = zext i16 %157 to i32
  %159 = icmp ne i32 %156, %158
  br i1 %159, label %160, label %161

160:                                              ; preds = %150
  br label %166

161:                                              ; preds = %150
  %162 = load ptr, ptr %8, align 8, !tbaa !3
  %163 = getelementptr inbounds nuw i16, ptr %162, i32 1
  store ptr %163, ptr %8, align 8, !tbaa !3
  %164 = load ptr, ptr %10, align 8, !tbaa !3
  %165 = getelementptr inbounds nuw i16, ptr %164, i32 1
  store ptr %165, ptr %10, align 8, !tbaa !3
  br label %144, !llvm.loop !50

166:                                              ; preds = %160
  %167 = load ptr, ptr %14, align 8, !tbaa !3
  %168 = load i32, ptr %9, align 4, !tbaa !8
  %169 = sext i32 %168 to i64
  %170 = getelementptr inbounds i16, ptr %167, i64 %169
  store ptr %170, ptr %16, align 8, !tbaa !3
  %171 = load ptr, ptr %15, align 8, !tbaa !3
  %172 = load i32, ptr %11, align 4, !tbaa !8
  %173 = sext i32 %172 to i64
  %174 = getelementptr inbounds i16, ptr %171, i64 %173
  store ptr %174, ptr %17, align 8, !tbaa !3
  store i32 0, ptr %20, align 4
  br label %175

175:                                              ; preds = %166, %148, %141
  call void @llvm.lifetime.end.p0(i64 4, ptr %21) #7
  %176 = load i32, ptr %20, align 4
  switch i32 %176, label %273 [
    i32 0, label %177
  ]

177:                                              ; preds = %175
  br label %178

178:                                              ; preds = %177, %96
  br label %179

179:                                              ; preds = %178, %56
  %180 = load i16, ptr %18, align 2, !tbaa !10
  %181 = zext i16 %180 to i32
  %182 = icmp sge i32 %181, 55296
  br i1 %182, label %183, label %267

183:                                              ; preds = %179
  %184 = load i16, ptr %19, align 2, !tbaa !10
  %185 = zext i16 %184 to i32
  %186 = icmp sge i32 %185, 55296
  br i1 %186, label %187, label %267

187:                                              ; preds = %183
  %188 = load i8, ptr %13, align 1, !tbaa !30
  %189 = icmp ne i8 %188, 0
  br i1 %189, label %190, label %267

190:                                              ; preds = %187
  %191 = load i16, ptr %18, align 2, !tbaa !10
  %192 = zext i16 %191 to i32
  %193 = icmp sle i32 %192, 56319
  br i1 %193, label %194, label %206

194:                                              ; preds = %190
  %195 = load ptr, ptr %8, align 8, !tbaa !3
  %196 = getelementptr inbounds i16, ptr %195, i64 1
  %197 = load ptr, ptr %16, align 8, !tbaa !3
  %198 = icmp ne ptr %196, %197
  br i1 %198, label %199, label %206

199:                                              ; preds = %194
  %200 = load ptr, ptr %8, align 8, !tbaa !3
  %201 = getelementptr inbounds i16, ptr %200, i64 1
  %202 = load i16, ptr %201, align 2, !tbaa !10
  %203 = zext i16 %202 to i32
  %204 = and i32 %203, -1024
  %205 = icmp eq i32 %204, 56320
  br i1 %205, label %222, label %206

206:                                              ; preds = %199, %194, %190
  %207 = load i16, ptr %18, align 2, !tbaa !10
  %208 = zext i16 %207 to i32
  %209 = and i32 %208, -1024
  %210 = icmp eq i32 %209, 56320
  br i1 %210, label %211, label %223

211:                                              ; preds = %206
  %212 = load ptr, ptr %14, align 8, !tbaa !3
  %213 = load ptr, ptr %8, align 8, !tbaa !3
  %214 = icmp ne ptr %212, %213
  br i1 %214, label %215, label %223

215:                                              ; preds = %211
  %216 = load ptr, ptr %8, align 8, !tbaa !3
  %217 = getelementptr inbounds i16, ptr %216, i64 -1
  %218 = load i16, ptr %217, align 2, !tbaa !10
  %219 = zext i16 %218 to i32
  %220 = and i32 %219, -1024
  %221 = icmp eq i32 %220, 55296
  br i1 %221, label %222, label %223

222:                                              ; preds = %215, %199
  br label %228

223:                                              ; preds = %215, %211, %206
  %224 = load i16, ptr %18, align 2, !tbaa !10
  %225 = zext i16 %224 to i32
  %226 = sub nsw i32 %225, 10240
  %227 = trunc i32 %226 to i16
  store i16 %227, ptr %18, align 2, !tbaa !10
  br label %228

228:                                              ; preds = %223, %222
  %229 = load i16, ptr %19, align 2, !tbaa !10
  %230 = zext i16 %229 to i32
  %231 = icmp sle i32 %230, 56319
  br i1 %231, label %232, label %244

232:                                              ; preds = %228
  %233 = load ptr, ptr %10, align 8, !tbaa !3
  %234 = getelementptr inbounds i16, ptr %233, i64 1
  %235 = load ptr, ptr %17, align 8, !tbaa !3
  %236 = icmp ne ptr %234, %235
  br i1 %236, label %237, label %244

237:                                              ; preds = %232
  %238 = load ptr, ptr %10, align 8, !tbaa !3
  %239 = getelementptr inbounds i16, ptr %238, i64 1
  %240 = load i16, ptr %239, align 2, !tbaa !10
  %241 = zext i16 %240 to i32
  %242 = and i32 %241, -1024
  %243 = icmp eq i32 %242, 56320
  br i1 %243, label %260, label %244

244:                                              ; preds = %237, %232, %228
  %245 = load i16, ptr %19, align 2, !tbaa !10
  %246 = zext i16 %245 to i32
  %247 = and i32 %246, -1024
  %248 = icmp eq i32 %247, 56320
  br i1 %248, label %249, label %261

249:                                              ; preds = %244
  %250 = load ptr, ptr %15, align 8, !tbaa !3
  %251 = load ptr, ptr %10, align 8, !tbaa !3
  %252 = icmp ne ptr %250, %251
  br i1 %252, label %253, label %261

253:                                              ; preds = %249
  %254 = load ptr, ptr %10, align 8, !tbaa !3
  %255 = getelementptr inbounds i16, ptr %254, i64 -1
  %256 = load i16, ptr %255, align 2, !tbaa !10
  %257 = zext i16 %256 to i32
  %258 = and i32 %257, -1024
  %259 = icmp eq i32 %258, 55296
  br i1 %259, label %260, label %261

260:                                              ; preds = %253, %237
  br label %266

261:                                              ; preds = %253, %249, %244
  %262 = load i16, ptr %19, align 2, !tbaa !10
  %263 = zext i16 %262 to i32
  %264 = sub nsw i32 %263, 10240
  %265 = trunc i32 %264 to i16
  store i16 %265, ptr %19, align 2, !tbaa !10
  br label %266

266:                                              ; preds = %261, %260
  br label %267

267:                                              ; preds = %266, %187, %183, %179
  %268 = load i16, ptr %18, align 2, !tbaa !10
  %269 = zext i16 %268 to i32
  %270 = load i16, ptr %19, align 2, !tbaa !10
  %271 = zext i16 %270 to i32
  %272 = sub nsw i32 %269, %271
  store i32 %272, ptr %7, align 4
  store i32 1, ptr %20, align 4
  br label %273

273:                                              ; preds = %267, %175, %90, %74, %64, %50, %33
  call void @llvm.lifetime.end.p0(i64 2, ptr %19) #7
  call void @llvm.lifetime.end.p0(i64 2, ptr %18) #7
  call void @llvm.lifetime.end.p0(i64 8, ptr %17) #7
  call void @llvm.lifetime.end.p0(i64 8, ptr %16) #7
  call void @llvm.lifetime.end.p0(i64 8, ptr %15) #7
  call void @llvm.lifetime.end.p0(i64 8, ptr %14) #7
  %274 = load i32, ptr %7, align 4
  ret i32 %274
}

; Function Attrs: mustprogress uwtable
define i32 @u_strcmpCodePointOrder_77(ptr noundef %0, ptr noundef %1) #0 {
  %3 = alloca ptr, align 8
  %4 = alloca ptr, align 8
  store ptr %0, ptr %3, align 8, !tbaa !3
  store ptr %1, ptr %4, align 8, !tbaa !3
  %5 = load ptr, ptr %3, align 8, !tbaa !3
  %6 = load ptr, ptr %4, align 8, !tbaa !3
  %7 = call i32 @uprv_strCompare_77(ptr noundef %5, i32 noundef -1, ptr noundef %6, i32 noundef -1, i8 noundef signext 0, i8 noundef signext 1)
  ret i32 %7
}