; Function Attrs: mustprogress nofree norecurse nosync nounwind willreturn memory(argmem: read) uwtable
define range(i32 -65535, 65536) i32 @u_strcmpCodePointOrder_77(ptr noundef readonly %0, ptr noundef readonly %1) local_unnamed_addr #2 {
  %3 = icmp eq ptr %0, %1
  br i1 %3, label %uprv_strCompare_77.exit, label %.preheader152.i

.preheader152.i:                                  ; preds = %2
  %4 = load i16, ptr %0, align 2, !tbaa !3
  %5 = load i16, ptr %1, align 2, !tbaa !3
  %.not133167.i = icmp eq i16 %4, %5
  br i1 %.not133167.i, label %.lr.ph.i, label %.loopexit.i

.lr.ph.i:                                         ; preds = %.preheader152.i, %8
  %6 = phi i16 [ %11, %8 ], [ %4, %.preheader152.i ]
  %.0102169.i = phi ptr [ %9, %8 ], [ %0, %.preheader152.i ]
  %.0108168.i = phi ptr [ %10, %8 ], [ %1, %.preheader152.i ]
  %7 = icmp eq i16 %6, 0
  br i1 %7, label %uprv_strCompare_77.exit, label %8

8:                                                ; preds = %.lr.ph.i
  %9 = getelementptr inbounds nuw i8, ptr %.0102169.i, i64 2
  %10 = getelementptr inbounds nuw i8, ptr %.0108168.i, i64 2
  %11 = load i16, ptr %9, align 2, !tbaa !3
  %12 = load i16, ptr %10, align 2, !tbaa !3
  %.not133.i = icmp eq i16 %11, %12
  br i1 %.not133.i, label %.lr.ph.i, label %.loopexit.i, !llvm.loop !40

.loopexit.i:                                      ; preds = %8, %.preheader152.i
  %.1109.i = phi ptr [ %1, %.preheader152.i ], [ %10, %8 ]
  %.1103.i = phi ptr [ %0, %.preheader152.i ], [ %9, %8 ]
  %.091.i = phi i16 [ %4, %.preheader152.i ], [ %11, %8 ]
  %.090.i = phi i16 [ %5, %.preheader152.i ], [ %12, %8 ]
  %13 = icmp ugt i16 %.091.i, -10241
  %14 = icmp ugt i16 %.090.i, -10241
  %or.cond4.i = and i1 %13, %14
  br i1 %or.cond4.i, label %15, label %49

15:                                               ; preds = %.loopexit.i
  %16 = icmp samesign ult i16 %.091.i, -9216
  br i1 %16, label %17, label %22

17:                                               ; preds = %15
  %18 = getelementptr inbounds nuw i8, ptr %.1103.i, i64 2
  %19 = load i16, ptr %18, align 2, !tbaa !3
  %20 = and i16 %19, -1024
  %21 = icmp eq i16 %20, -9216
  br i1 %21, label %32, label %22

22:                                               ; preds = %17, %15
  %23 = and i16 %.091.i, -1024
  %24 = icmp ne i16 %23, -9216
  %.not135.i = icmp eq ptr %0, %.1103.i
  %or.cond.i = or i1 %.not135.i, %24
  br i1 %or.cond.i, label %30, label %25

25:                                               ; preds = %22
  %26 = getelementptr inbounds i8, ptr %.1103.i, i64 -2
  %27 = load i16, ptr %26, align 2, !tbaa !3
  %28 = and i16 %27, -1024
  %29 = icmp eq i16 %28, -10240
  br i1 %29, label %32, label %30

30:                                               ; preds = %25, %22
  %31 = add nsw i16 %.091.i, -10240
  br label %32

32:                                               ; preds = %30, %25, %17
  %.4.i = phi i16 [ %.091.i, %17 ], [ %.091.i, %25 ], [ %31, %30 ]
  %33 = icmp samesign ult i16 %.090.i, -9216
  br i1 %33, label %34, label %39

34:                                               ; preds = %32
  %35 = getelementptr inbounds nuw i8, ptr %.1109.i, i64 2
  %36 = load i16, ptr %35, align 2, !tbaa !3
  %37 = and i16 %36, -1024
  %38 = icmp eq i16 %37, -9216
  br i1 %38, label %49, label %39

39:                                               ; preds = %34, %32
  %40 = and i16 %.090.i, -1024
  %41 = icmp ne i16 %40, -9216
  %.not137.i = icmp eq ptr %1, %.1109.i
  %or.cond138.i = or i1 %.not137.i, %41
  br i1 %or.cond138.i, label %47, label %42

42:                                               ; preds = %39
  %43 = getelementptr inbounds i8, ptr %.1109.i, i64 -2
  %44 = load i16, ptr %43, align 2, !tbaa !3
  %45 = and i16 %44, -1024
  %46 = icmp eq i16 %45, -10240
  br i1 %46, label %49, label %47

47:                                               ; preds = %42, %39
  %48 = add nsw i16 %.090.i, -10240
  br label %49

49:                                               ; preds = %47, %42, %34, %.loopexit.i
  %.394.i = phi i16 [ %.4.i, %34 ], [ %.4.i, %42 ], [ %.4.i, %47 ], [ %.091.i, %.loopexit.i ]
  %.3.i = phi i16 [ %.090.i, %34 ], [ %.090.i, %42 ], [ %48, %47 ], [ %.090.i, %.loopexit.i ]
  %50 = zext i16 %.394.i to i32
  %51 = zext i16 %.3.i to i32
  %52 = sub nsw i32 %50, %51
  br label %uprv_strCompare_77.exit

uprv_strCompare_77.exit:                          ; preds = %.lr.ph.i, %2, %49
  %.0100.i = phi i32 [ %52, %49 ], [ 0, %2 ], [ 0, %.lr.ph.i ]
  ret i32 %.0100.i
}